target datalayout = "e-m:e-p270:32:32-p271:32:32-p272:64:64-i64:64-i128:128-f80:128-n8:16:32:64-S128"
target triple = "x86_64-pc-linux-gnu"

%struct._psqlSettings = type { ptr, i32, ptr, i8, ptr, ptr, %struct.printQueryOpt, ptr, ptr, ptr, i8, i8, i32, i32, ptr, ptr, i8, [4 x ptr], i8, i32, ptr, i8, i32, ptr, ptr, i64, i64, i8, ptr, ptr, ptr, i8, i8, i8, i8, i8, i8, i8, i32, i32, i32, i32, i32, i32, i32, i32, ptr, ptr, ptr, i32, i8, i32 }
%struct.printQueryOpt = type { %struct.printTableOpt, ptr, ptr, ptr, i8, ptr, i32 }
%struct.printTableOpt = type { i32, i16, i32, i32, i16, i16, i32, i8, i8, i8, i8, i64, ptr, %struct.separator, %struct.separator, [2 x i8], i8, ptr, i32, i32, i32, i32, i32, i32 }
%struct.separator = type { ptr, i8 }
%struct.PQExpBufferData = type { ptr, i64, i64 }

@pset = external global %struct._psqlSettings, align 8
@.str.1 = private unnamed_addr constant [7 x i8] c"Schema\00", align 1
@.str.2 = private unnamed_addr constant [5 x i8] c"Name\00", align 1
@.str.6 = private unnamed_addr constant [12 x i8] c"Description\00", align 1
@.str.9 = private unnamed_addr constant [10 x i8] c"n.nspname\00", align 1
@.str.61 = private unnamed_addr constant [4 x i8] c"yes\00", align 1
@.str.62 = private unnamed_addr constant [3 x i8] c"no\00", align 1
@.str.111 = private unnamed_addr constant [15 x i8] c"ORDER BY 1, 2;\00", align 1
@listConversions.translate_columns = internal constant [6 x i8] c"\00\00\00\00\01\00", align 1
@.str.344 = private unnamed_addr constant [7 x i8] c"Source\00", align 1
@.str.345 = private unnamed_addr constant [12 x i8] c"Destination\00", align 1
@.str.346 = private unnamed_addr constant [9 x i8] c"Default?\00", align 1
@.str.347 = private unnamed_addr constant [31 x i8] c",\0A       d.description AS \22%s\22\00", align 1
@.str.348 = private unnamed_addr constant [96 x i8] c"\0AFROM pg_catalog.pg_conversion c\0A     JOIN pg_catalog.pg_namespace n ON n.oid = c.connamespace\0A\00", align 1
@.str.349 = private unnamed_addr constant [116 x i8] c"LEFT JOIN pg_catalog.pg_description d ON d.classoid = c.tableoid\0A          AND d.objoid = c.oid AND d.objsubid = 0\0A\00", align 1
@.str.350 = private unnamed_addr constant [12 x i8] c"WHERE true\0A\00", align 1
@.str.351 = private unnamed_addr constant [73 x i8] c"  AND n.nspname <> 'pg_catalog'\0A  AND n.nspname <> 'information_schema'\0A\00", align 1
@.str.352 = private unnamed_addr constant [10 x i8] c"c.conname\00", align 1
@.str.353 = private unnamed_addr constant [43 x i8] c"pg_catalog.pg_conversion_is_visible(c.oid)\00", align 1
@.str.354 = private unnamed_addr constant [20 x i8] c"List of conversions\00", align 1

; Function Attrs: nounwind uwtable
define dso_local zeroext i1 @listConversions(ptr noundef %0, i1 noundef zeroext %1, i1 noundef zeroext %2) #0 {
  %4 = alloca i1, align 1
  %5 = alloca ptr, align 8
  %6 = alloca i8, align 1
  %7 = alloca i8, align 1
  %8 = alloca %struct.PQExpBufferData, align 8
  %9 = alloca ptr, align 8
  %10 = alloca %struct.printQueryOpt, align 8
  %11 = alloca i32, align 4
  store ptr %0, ptr %5, align 8
  %12 = zext i1 %1 to i8
  store i8 %12, ptr %6, align 1
  %13 = zext i1 %2 to i8
  store i8 %13, ptr %7, align 1
  call void @llvm.lifetime.start.p0(i64 24, ptr %8) #8
  call void @llvm.lifetime.start.p0(i64 8, ptr %9) #8
  call void @llvm.lifetime.start.p0(i64 168, ptr %10) #8
  call void @llvm.memcpy.p0.p0.i64(ptr align 8 %10, ptr align 8 getelementptr inbounds nuw (%struct._psqlSettings, ptr @pset, i32 0, i32 6), i64 168, i1 false)
  call void @initPQExpBuffer(ptr noundef %8)
  call void (ptr, ptr, ...) @printfPQExpBuffer(ptr noundef %8, ptr noundef @.str.343, ptr noundef @.str.1, ptr noundef @.str.2, ptr noundef @.str.344, ptr noundef @.str.345, ptr noundef @.str.61, ptr noundef @.str.62, ptr noundef @.str.346)
  %14 = load i8, ptr %6, align 1, !range !4, !noundef !5
  %15 = trunc i8 %14 to i1
  br i1 %15, label %16, label %17

16:                                               ; preds = %3
  call void (ptr, ptr, ...) @appendPQExpBuffer(ptr noundef %8, ptr noundef @.str.347, ptr noundef @.str.6)
  br label %17

17:                                               ; preds = %16, %3
  call void @appendPQExpBufferStr(ptr noundef %8, ptr noundef @.str.348)
  %18 = load i8, ptr %6, align 1, !range !4, !noundef !5
  %19 = trunc i8 %18 to i1
  br i1 %19, label %20, label %21

20:                                               ; preds = %17
  call void @appendPQExpBufferStr(ptr noundef %8, ptr noundef @.str.349)
  br label %21

21:                                               ; preds = %20, %17
  call void @appendPQExpBufferStr(ptr noundef %8, ptr noundef @.str.350)
  %22 = load i8, ptr %7, align 1, !range !4, !noundef !5
  %23 = trunc i8 %22 to i1
  br i1 %23, label %28, label %24

24:                                               ; preds = %21
  %25 = load ptr, ptr %5, align 8
  %26 = icmp ne ptr %25, null
  br i1 %26, label %28, label %27

27:                                               ; preds = %24
  call void @appendPQExpBufferStr(ptr noundef %8, ptr noundef @.str.351)
  br label %28

28:                                               ; preds = %27, %24, %21
  %29 = load ptr, ptr %5, align 8
  %30 = call zeroext i1 @validateSQLNamePattern(ptr noundef %8, ptr noundef %29, i1 noundef zeroext true, i1 noundef zeroext false, ptr noundef @.str.9, ptr noundef @.str.352, ptr noundef null, ptr noundef @.str.353, ptr noundef null, i32 noundef 3)
  br i1 %30, label %32, label %31

31:                                               ; preds = %28
  call void @termPQExpBuffer(ptr noundef %8)
  store i1 false, ptr %4, align 1
  store i32 1, ptr %11, align 4
  br label %48

32:                                               ; preds = %28
  call void @appendPQExpBufferStr(ptr noundef %8, ptr noundef @.str.111)
  %33 = getelementptr inbounds nuw %struct.PQExpBufferData, ptr %8, i32 0, i32 0
  %34 = load ptr, ptr %33, align 8
  %35 = call ptr @PSQLexec(ptr noundef %34)
  store ptr %35, ptr %9, align 8
  call void @termPQExpBuffer(ptr noundef %8)
  %36 = load ptr, ptr %9, align 8
  %37 = icmp ne ptr %36, null
  br i1 %37, label %39, label %38

38:                                               ; preds = %32
  store i1 false, ptr %4, align 1
  store i32 1, ptr %11, align 4
  br label %48

39:                                               ; preds = %32
  %40 = getelementptr inbounds nuw %struct.printQueryOpt, ptr %10, i32 0, i32 2
  store ptr @.str.354, ptr %40, align 8
  %41 = getelementptr inbounds nuw %struct.printQueryOpt, ptr %10, i32 0, i32 4
  store i8 1, ptr %41, align 8
  %42 = getelementptr inbounds nuw %struct.printQueryOpt, ptr %10, i32 0, i32 5
  store ptr @listConversions.translate_columns, ptr %42, align 8
  %43 = getelementptr inbounds nuw %struct.printQueryOpt, ptr %10, i32 0, i32 6
  store i32 6, ptr %43, align 8
  %44 = load ptr, ptr %9, align 8
  %45 = load ptr, ptr getelementptr inbounds nuw (%struct._psqlSettings, ptr @pset, i32 0, i32 2), align 8
  %46 = load ptr, ptr getelementptr inbounds nuw (%struct._psqlSettings, ptr @pset, i32 0, i32 28), align 8
  call void @printQuery(ptr noundef %44, ptr noundef %10, ptr noundef %45, i1 noundef zeroext false, ptr noundef %46)
  %47 = load ptr, ptr %9, align 8
  call void @PQclear(ptr noundef %47)
  store i1 true, ptr %4, align 1
  store i32 1, ptr %11, align 4
  br label %48

48:                                               ; preds = %39, %38, %31
  call void @llvm.lifetime.end.p0(i64 168, ptr %10) #8
  call void @llvm.lifetime.end.p0(i64 8, ptr %9) #8
  call void @llvm.lifetime.end.p0(i64 24, ptr %8) #8
  %49 = load i1, ptr %4, align 1
  ret i1 %49
}