; Function Attrs: nounwind uwtable
define dso_local noundef zeroext i1 @listConversions(ptr noundef %0, i1 noundef zeroext %1, i1 noundef zeroext %2) local_unnamed_addr #0 {
  %4 = alloca %struct.PQExpBufferData, align 8
  %5 = alloca %struct.printQueryOpt, align 8
  call void @llvm.lifetime.start.p0(i64 24, ptr nonnull %4) #8
  call void @llvm.lifetime.start.p0(i64 168, ptr nonnull %5) #8
  call void @llvm.memcpy.p0.p0.i64(ptr noundef nonnull align 8 dereferenceable(168) %5, ptr noundef nonnull align 8 dereferenceable(168) getelementptr inbounds nuw (i8, ptr @pset, i64 48), i64 168, i1 false)
  call void @initPQExpBuffer(ptr noundef nonnull %4) #8
  call void (ptr, ptr, ...) @printfPQExpBuffer(ptr noundef nonnull %4, ptr noundef nonnull @.str.343, ptr noundef nonnull @.str.1, ptr noundef nonnull @.str.2, ptr noundef nonnull @.str.344, ptr noundef nonnull @.str.345, ptr noundef nonnull @.str.61, ptr noundef nonnull @.str.62, ptr noundef nonnull @.str.346) #8
  br i1 %1, label %6, label %.critedge

6:                                                ; preds = %3
  call void (ptr, ptr, ...) @appendPQExpBuffer(ptr noundef nonnull %4, ptr noundef nonnull @.str.347, ptr noundef nonnull @.str.6) #8
  call void @appendPQExpBufferStr(ptr noundef nonnull %4, ptr noundef nonnull @.str.348) #8
  br label %.critedge

.critedge:                                        ; preds = %3, %6
  %.str.348.sink = phi ptr [ @.str.349, %6 ], [ @.str.348, %3 ]
  call void @appendPQExpBufferStr(ptr noundef nonnull %4, ptr noundef nonnull %.str.348.sink) #8
  call void @appendPQExpBufferStr(ptr noundef nonnull %4, ptr noundef nonnull @.str.350) #8
  %7 = icmp ne ptr %0, null
  %or.cond = or i1 %7, %2
  br i1 %or.cond, label %9, label %8

8:                                                ; preds = %.critedge
  call void @appendPQExpBufferStr(ptr noundef nonnull %4, ptr noundef nonnull @.str.351) #8
  br label %9

9:                                                ; preds = %8, %.critedge
  %10 = call fastcc zeroext i1 @validateSQLNamePattern(ptr noundef %4, ptr noundef %0, i1 noundef zeroext true, i1 noundef zeroext false, ptr noundef nonnull @.str.9, ptr noundef nonnull @.str.352, ptr noundef null, ptr noundef nonnull @.str.353, ptr noundef null, i32 noundef 3)
  br i1 %10, label %12, label %11

11:                                               ; preds = %9
  call void @termPQExpBuffer(ptr noundef nonnull %4) #8
  br label %22

12:                                               ; preds = %9
  call void @appendPQExpBufferStr(ptr noundef nonnull %4, ptr noundef nonnull @.str.111) #8
  %13 = load ptr, ptr %4, align 8
  %14 = call ptr @PSQLexec(ptr noundef %13) #8
  call void @termPQExpBuffer(ptr noundef nonnull %4) #8
  %.not = icmp eq ptr %14, null
  br i1 %.not, label %22, label %15

15:                                               ; preds = %12
  %16 = getelementptr inbounds nuw i8, ptr %5, i64 128
  store ptr @.str.354, ptr %16, align 8
  %17 = getelementptr inbounds nuw i8, ptr %5, i64 144
  store i8 1, ptr %17, align 8
  %18 = getelementptr inbounds nuw i8, ptr %5, i64 152
  store ptr @listConversions.translate_columns, ptr %18, align 8
  %19 = getelementptr inbounds nuw i8, ptr %5, i64 160
  store i32 6, ptr %19, align 8
  %20 = load ptr, ptr getelementptr inbounds nuw (i8, ptr @pset, i64 16), align 8
  %21 = load ptr, ptr getelementptr inbounds nuw (i8, ptr @pset, i64 376), align 8
  call void @printQuery(ptr noundef nonnull %14, ptr noundef nonnull %5, ptr noundef %20, i1 noundef zeroext false, ptr noundef %21) #8
  call void @PQclear(ptr noundef nonnull %14) #8
  br label %22

22:                                               ; preds = %12, %15, %11
  %.0 = phi i1 [ true, %15 ], [ false, %11 ], [ false, %12 ]
  call void @llvm.lifetime.end.p0(i64 168, ptr nonnull %5) #8
  call void @llvm.lifetime.end.p0(i64 24, ptr nonnull %4) #8
  ret i1 %.0
}